target datalayout = "e-m:e-p270:32:32-p271:32:32-p272:64:64-i64:64-i128:128-f80:128-n8:16:32:64-S128"
target triple = "x86_64-unknown-linux-gnu"

@_ZZN7rocksdb24DisableGCSnapshotChecker8InstanceEvE8instance = internal global ptr null, align 8
@_ZGVZN7rocksdb24DisableGCSnapshotChecker8InstanceEvE8instance = internal global i64 0, align 8
@_ZTVN7rocksdb15SnapshotCheckerE = linkonce_odr unnamed_addr constant { [5 x ptr] } { [5 x ptr] [ptr null, ptr null, ptr @_ZN7rocksdb15SnapshotCheckerD2Ev, ptr @_ZN7rocksdb15SnapshotCheckerD0Ev, ptr @__cxa_pure_virtual] }, comdat, align 8

; Function Attrs: mustprogress nounwind uwtable
define linkonce_odr void @_ZN7rocksdb15SnapshotCheckerC2Ev(ptr noundef nonnull align 8 dereferenceable(8) %this) unnamed_addr #1 comdat align 2 {
entry:
  %this.addr = alloca ptr, align 8
  store ptr %this, ptr %this.addr, align 8
  %this1 = load ptr, ptr %this.addr, align 8
  store ptr getelementptr inbounds ({ [5 x ptr] }, ptr @_ZTVN7rocksdb15SnapshotCheckerE, i32 0, i32 0, i32 2), ptr %this1, align 8
  ret void
}

; Function Attrs: mustprogress nounwind uwtable
define linkonce_odr void @_ZN7rocksdb24DisableGCSnapshotCheckerC2Ev(ptr noundef nonnull align 8 dereferenceable(8) %this) unnamed_addr #1 comdat align 2 {
entry:
  %this.addr = alloca ptr, align 8
  store ptr %this, ptr %this.addr, align 8
  %this1 = load ptr, ptr %this.addr, align 8
  call void @_ZN7rocksdb15SnapshotCheckerC2Ev(ptr noundef nonnull align 8 dereferenceable(8) %this1) #3
  store ptr getelementptr inbounds ({ [5 x ptr] }, ptr @_ZTVN7rocksdb24DisableGCSnapshotCheckerE, i32 0, i32 0, i32 2), ptr %this1, align 8
  ret void
}

; Function Attrs: mustprogress uwtable
define noundef ptr @_ZN7rocksdb24DisableGCSnapshotChecker8InstanceEv() #0 align 2 personality ptr @__gxx_personality_v0 {
entry:
  %exn.slot = alloca ptr, align 8
  %ehselector.slot = alloca i32, align 4
  %0 = load atomic i8, ptr @_ZGVZN7rocksdb24DisableGCSnapshotChecker8InstanceEvE8instance acquire, align 8
  %guard.uninitialized = icmp eq i8 %0, 0
  br i1 %guard.uninitialized, label %init.check, label %init.end, !prof !6

init.check:                                       ; preds = %entry
  %1 = call i32 @__cxa_guard_acquire(ptr @_ZGVZN7rocksdb24DisableGCSnapshotChecker8InstanceEvE8instance) #3
  %tobool = icmp ne i32 %1, 0
  br i1 %tobool, label %init, label %init.end

init:                                             ; preds = %init.check
  %call = invoke noalias noundef nonnull ptr @_Znwm(i64 noundef 8) #16
          to label %invoke.cont unwind label %lpad

invoke.cont:                                      ; preds = %init
  invoke void @_ZN7rocksdb24DisableGCSnapshotCheckerC2Ev(ptr noundef nonnull align 8 dereferenceable(8) %call)
          to label %invoke.cont2 unwind label %lpad1

invoke.cont2:                                     ; preds = %invoke.cont
  store ptr %call, ptr @_ZZN7rocksdb24DisableGCSnapshotChecker8InstanceEvE8instance, align 8
  call void @__cxa_guard_release(ptr @_ZGVZN7rocksdb24DisableGCSnapshotChecker8InstanceEvE8instance) #3
  br label %init.end

init.end:                                         ; preds = %invoke.cont2, %init.check, %entry
  %2 = load ptr, ptr @_ZZN7rocksdb24DisableGCSnapshotChecker8InstanceEvE8instance, align 8
  ret ptr %2

lpad:                                             ; preds = %init
  %3 = landingpad { ptr, i32 }
          cleanup
  %4 = extractvalue { ptr, i32 } %3, 0
  store ptr %4, ptr %exn.slot, align 8
  %5 = extractvalue { ptr, i32 } %3, 1
  store i32 %5, ptr %ehselector.slot, align 4
  br label %ehcleanup

lpad1:                                            ; preds = %invoke.cont
  %6 = landingpad { ptr, i32 }
          cleanup
  %7 = extractvalue { ptr, i32 } %6, 0
  store ptr %7, ptr %exn.slot, align 8
  %8 = extractvalue { ptr, i32 } %6, 1
  store i32 %8, ptr %ehselector.slot, align 4
  call void @_ZdlPv(ptr noundef %call) #17
  br label %ehcleanup

ehcleanup:                                        ; preds = %lpad1, %lpad
  call void @__cxa_guard_abort(ptr @_ZGVZN7rocksdb24DisableGCSnapshotChecker8InstanceEvE8instance) #3
  br label %eh.resume

eh.resume:                                        ; preds = %ehcleanup
  %exn = load ptr, ptr %exn.slot, align 8
  %sel = load i32, ptr %ehselector.slot, align 4
  %lpad.val = insertvalue { ptr, i32 } poison, ptr %exn, 0
  %lpad.val3 = insertvalue { ptr, i32 } %lpad.val, i32 %sel, 1
  resume { ptr, i32 } %lpad.val3
}