; Function Attrs: mustprogress uwtable
define noundef ptr @_ZN7rocksdb24DisableGCSnapshotChecker8InstanceEv() local_unnamed_addr #3 align 2 personality ptr @__gxx_personality_v0 {
entry:
  %0 = load atomic i8, ptr @_ZGVZN7rocksdb24DisableGCSnapshotChecker8InstanceEvE8instance acquire, align 8
  %guard.uninitialized = icmp eq i8 %0, 0
  br i1 %guard.uninitialized, label %init.check, label %init.end, !prof !10

init.check:                                       ; preds = %entry
  %1 = tail call i32 @__cxa_guard_acquire(ptr nonnull @_ZGVZN7rocksdb24DisableGCSnapshotChecker8InstanceEvE8instance) #12
  %tobool.not = icmp eq i32 %1, 0
  br i1 %tobool.not, label %init.end, label %init

init:                                             ; preds = %init.check
  %call = invoke noalias noundef nonnull dereferenceable(8) ptr @_Znwm(i64 noundef 8) #15
          to label %invoke.cont unwind label %lpad

invoke.cont:                                      ; preds = %init
  store ptr getelementptr inbounds ({ [5 x ptr] }, ptr @_ZTVN7rocksdb24DisableGCSnapshotCheckerE, i64 0, i32 0, i64 2), ptr %call, align 8
  store ptr %call, ptr @_ZZN7rocksdb24DisableGCSnapshotChecker8InstanceEvE8instance, align 8
  tail call void @__cxa_guard_release(ptr nonnull @_ZGVZN7rocksdb24DisableGCSnapshotChecker8InstanceEvE8instance) #12
  br label %init.end

init.end:                                         ; preds = %invoke.cont, %init.check, %entry
  %2 = load ptr, ptr @_ZZN7rocksdb24DisableGCSnapshotChecker8InstanceEvE8instance, align 8
  ret ptr %2

lpad:                                             ; preds = %init
  %3 = landingpad { ptr, i32 }
          cleanup
  tail call void @__cxa_guard_abort(ptr nonnull @_ZGVZN7rocksdb24DisableGCSnapshotChecker8InstanceEvE8instance) #12
  resume { ptr, i32 } %3
}